; ModuleID = '55/856.c'
source_filename = "55/856.c"
target datalayout = "e-m:e-p270:32:32-p271:32:32-p272:64:64-i64:64-f80:128-n8:16:32:64-S128"
target triple = "x86_64-pc-linux-gnu"

@.str = private unnamed_addr constant [3 x i8] c"%d\00", align 1
@.str.1 = private unnamed_addr constant [3 x i8] c"%s\00", align 1
@.str.2 = private unnamed_addr constant [3 x i8] c"%c\00", align 1

; Function Attrs: noinline nounwind uwtable
define dso_local i32 @main() #0 {
  %1 = alloca i32, align 4
  %2 = alloca i32, align 4
  %3 = alloca i32, align 4
  %4 = alloca i32, align 4
  %5 = alloca i32, align 4
  %6 = alloca i32, align 4
  %7 = alloca i64, align 8
  %8 = alloca i64, align 8
  %9 = alloca i64, align 8
  %10 = alloca [800 x i8], align 16
  %11 = alloca [1000 x i32], align 16
  store i32 0, i32* %1, align 4
  store i32 0, i32* %6, align 4
  store i64 0, i64* %7, align 8
  store i64 0, i64* %8, align 8
  store i64 0, i64* %9, align 8
  %12 = call i32 (i8*, ...) @__isoc99_scanf(i8* getelementptr inbounds ([3 x i8], [3 x i8]* @.str, i64 0, i64 0), i32* %2)
  %13 = getelementptr inbounds [800 x i8], [800 x i8]* %10, i64 0, i64 0
  %14 = call i32 (i8*, ...) @__isoc99_scanf(i8* getelementptr inbounds ([3 x i8], [3 x i8]* @.str.1, i64 0, i64 0), i8* %13)
  %15 = call i32 (i8*, ...) @__isoc99_scanf(i8* getelementptr inbounds ([3 x i8], [3 x i8]* @.str, i64 0, i64 0), i32* %3)
  %16 = getelementptr inbounds [800 x i8], [800 x i8]* %10, i64 0, i64 0
  %17 = load i8, i8* %16, align 16
  %18 = sext i8 %17 to i32
  %19 = icmp eq i32 %18, 48
  br i1 %19, label %20, label %22

20:                                               ; preds = %0
  %21 = call i32 (i8*, ...) @printf(i8* getelementptr inbounds ([3 x i8], [3 x i8]* @.str.2, i64 0, i64 0), i32 48)
  br label %209

22:                                               ; preds = %0
  %23 = getelementptr inbounds [800 x i8], [800 x i8]* %10, i64 0, i64 0
  %24 = call i64 @strlen(i8* %23) #3
  store i64 %24, i64* %9, align 8
  store i32 0, i32* %4, align 4
  br label %25

25:                                               ; preds = %110, %22
  %26 = load i32, i32* %4, align 4
  %27 = sext i32 %26 to i64
  %28 = load i64, i64* %9, align 8
  %29 = icmp slt i64 %27, %28
  br i1 %29, label %30, label %113

30:                                               ; preds = %25
  %31 = load i32, i32* %4, align 4
  %32 = sext i32 %31 to i64
  %33 = getelementptr inbounds [800 x i8], [800 x i8]* %10, i64 0, i64 %32
  %34 = load i8, i8* %33, align 1
  %35 = sext i8 %34 to i32
  %36 = icmp sge i32 %35, 65
  br i1 %36, label %37, label %56

37:                                               ; preds = %30
  %38 = load i32, i32* %4, align 4
  %39 = sext i32 %38 to i64
  %40 = getelementptr inbounds [800 x i8], [800 x i8]* %10, i64 0, i64 %39
  %41 = load i8, i8* %40, align 1
  %42 = sext i8 %41 to i32
  %43 = icmp sle i32 %42, 90
  br i1 %43, label %44, label %56

44:                                               ; preds = %37
  %45 = load i32, i32* %4, align 4
  %46 = sext i32 %45 to i64
  %47 = getelementptr inbounds [800 x i8], [800 x i8]* %10, i64 0, i64 %46
  %48 = load i8, i8* %47, align 1
  %49 = sext i8 %48 to i32
  %50 = sub nsw i32 %49, 65
  %51 = add nsw i32 %50, 10
  %52 = trunc i32 %51 to i8
  %53 = load i32, i32* %4, align 4
  %54 = sext i32 %53 to i64
  %55 = getelementptr inbounds [800 x i8], [800 x i8]* %10, i64 0, i64 %54
  store i8 %52, i8* %55, align 1
  br label %109

56:                                               ; preds = %37, %30
  %57 = load i32, i32* %4, align 4
  %58 = sext i32 %57 to i64
  %59 = getelementptr inbounds [800 x i8], [800 x i8]* %10, i64 0, i64 %58
  %60 = load i8, i8* %59, align 1
  %61 = sext i8 %60 to i32
  %62 = icmp sge i32 %61, 97
  br i1 %62, label %63, label %82

63:                                               ; preds = %56
  %64 = load i32, i32* %4, align 4
  %65 = sext i32 %64 to i64
  %66 = getelementptr inbounds [800 x i8], [800 x i8]* %10, i64 0, i64 %65
  %67 = load i8, i8* %66, align 1
  %68 = sext i8 %67 to i32
  %69 = icmp sle i32 %68, 122
  br i1 %69, label %70, label %82

70:                                               ; preds = %63
  %71 = load i32, i32* %4, align 4
  %72 = sext i32 %71 to i64
  %73 = getelementptr inbounds [800 x i8], [800 x i8]* %10, i64 0, i64 %72
  %74 = load i8, i8* %73, align 1
  %75 = sext i8 %74 to i32
  %76 = sub nsw i32 %75, 97
  %77 = add nsw i32 %76, 10
  %78 = trunc i32 %77 to i8
  %79 = load i32, i32* %4, align 4
  %80 = sext i32 %79 to i64
  %81 = getelementptr inbounds [800 x i8], [800 x i8]* %10, i64 0, i64 %80
  store i8 %78, i8* %81, align 1
  br label %108

82:                                               ; preds = %63, %56
  %83 = load i32, i32* %4, align 4
  %84 = sext i32 %83 to i64
  %85 = getelementptr inbounds [800 x i8], [800 x i8]* %10, i64 0, i64 %84
  %86 = load i8, i8* %85, align 1
  %87 = sext i8 %86 to i32
  %88 = icmp sge i32 %87, 48
  br i1 %88, label %89, label %107

89:                                               ; preds = %82
  %90 = load i32, i32* %4, align 4
  %91 = sext i32 %90 to i64
  %92 = getelementptr inbounds [800 x i8], [800 x i8]* %10, i64 0, i64 %91
  %93 = load i8, i8* %92, align 1
  %94 = sext i8 %93 to i32
  %95 = icmp sle i32 %94, 57
  br i1 %95, label %96, label %107

96:                                               ; preds = %89
  %97 = load i32, i32* %4, align 4
  %98 = sext i32 %97 to i64
  %99 = getelementptr inbounds [800 x i8], [800 x i8]* %10, i64 0, i64 %98
  %100 = load i8, i8* %99, align 1
  %101 = sext i8 %100 to i32
  %102 = sub nsw i32 %101, 48
  %103 = trunc i32 %102 to i8
  %104 = load i32, i32* %4, align 4
  %105 = sext i32 %104 to i64
  %106 = getelementptr inbounds [800 x i8], [800 x i8]* %10, i64 0, i64 %105
  store i8 %103, i8* %106, align 1
  br label %107

107:                                              ; preds = %96, %89, %82
  br label %108

108:                                              ; preds = %107, %70
  br label %109

109:                                              ; preds = %108, %44
  br label %110

110:                                              ; preds = %109
  %111 = load i32, i32* %4, align 4
  %112 = add nsw i32 %111, 1
  store i32 %112, i32* %4, align 4
  br label %25

113:                                              ; preds = %25
  store i64 0, i64* %8, align 8
  store i32 0, i32* %4, align 4
  br label %114

114:                                              ; preds = %130, %113
  %115 = load i32, i32* %4, align 4
  %116 = sext i32 %115 to i64
  %117 = load i64, i64* %9, align 8
  %118 = icmp slt i64 %116, %117
  br i1 %118, label %119, label %133

119:                                              ; preds = %114
  %120 = load i64, i64* %8, align 8
  %121 = load i32, i32* %2, align 4
  %122 = sext i32 %121 to i64
  %123 = mul nsw i64 %120, %122
  %124 = load i32, i32* %4, align 4
  %125 = sext i32 %124 to i64
  %126 = getelementptr inbounds [800 x i8], [800 x i8]* %10, i64 0, i64 %125
  %127 = load i8, i8* %126, align 1
  %128 = sext i8 %127 to i64
  %129 = add nsw i64 %123, %128
  store i64 %129, i64* %8, align 8
  br label %130

130:                                              ; preds = %119
  %131 = load i32, i32* %4, align 4
  %132 = add nsw i32 %131, 1
  store i32 %132, i32* %4, align 4
  br label %114

133:                                              ; preds = %114
  store i32 0, i32* %5, align 4
  br label %134

134:                                              ; preds = %164, %133
  %135 = load i64, i64* %8, align 8
  %136 = load i32, i32* %3, align 4
  %137 = sext i32 %136 to i64
  %138 = srem i64 %135, %137
  %139 = trunc i64 %138 to i32
  %140 = load i32, i32* %5, align 4
  %141 = sext i32 %140 to i64
  %142 = getelementptr inbounds [1000 x i32], [1000 x i32]* %11, i64 0, i64 %141
  store i32 %139, i32* %142, align 4
  %143 = load i64, i64* %8, align 8
  %144 = load i32, i32* %3, align 4
  %145 = sext i32 %144 to i64
  %146 = sdiv i64 %143, %145
  store i64 %146, i64* %8, align 8
  %147 = load i64, i64* %8, align 8
  %148 = load i32, i32* %3, align 4
  %149 = sext i32 %148 to i64
  %150 = icmp slt i64 %147, %149
  br i1 %150, label %151, label %163

151:                                              ; preds = %134
  %152 = load i64, i64* %8, align 8
  %153 = load i32, i32* %3, align 4
  %154 = sext i32 %153 to i64
  %155 = srem i64 %152, %154
  %156 = trunc i64 %155 to i32
  %157 = load i32, i32* %5, align 4
  %158 = add nsw i32 %157, 1
  %159 = sext i32 %158 to i64
  %160 = getelementptr inbounds [1000 x i32], [1000 x i32]* %11, i64 0, i64 %159
  store i32 %156, i32* %160, align 4
  %161 = load i32, i32* %5, align 4
  %162 = add nsw i32 %161, 1
  store i32 %162, i32* %6, align 4
  br label %167

163:                                              ; preds = %134
  br label %164

164:                                              ; preds = %163
  %165 = load i32, i32* %5, align 4
  %166 = add nsw i32 %165, 1
  store i32 %166, i32* %5, align 4
  br label %134

167:                                              ; preds = %151
  %168 = load i32, i32* %6, align 4
  %169 = add nsw i32 %168, 1
  %170 = sext i32 %169 to i64
  %171 = getelementptr inbounds [1000 x i32], [1000 x i32]* %11, i64 0, i64 %170
  store i32 0, i32* %171, align 4
  %172 = load i32, i32* %6, align 4
  store i32 %172, i32* %4, align 4
  br label %173

173:                                              ; preds = %205, %167
  %174 = load i32, i32* %4, align 4
  %175 = icmp sge i32 %174, 0
  br i1 %175, label %176, label %208

176:                                              ; preds = %173
  %177 = load i32, i32* %4, align 4
  %178 = sext i32 %177 to i64
  %179 = getelementptr inbounds [1000 x i32], [1000 x i32]* %11, i64 0, i64 %178
  %180 = load i32, i32* %179, align 4
  %181 = icmp sgt i32 %180, 9
  br i1 %181, label %182, label %197

182:                                              ; preds = %176
  %183 = load i32, i32* %4, align 4
  %184 = sext i32 %183 to i64
  %185 = getelementptr inbounds [1000 x i32], [1000 x i32]* %11, i64 0, i64 %184
  %186 = load i32, i32* %185, align 4
  %187 = add nsw i32 %186, 65
  %188 = sub nsw i32 %187, 10
  %189 = load i32, i32* %4, align 4
  %190 = sext i32 %189 to i64
  %191 = getelementptr inbounds [1000 x i32], [1000 x i32]* %11, i64 0, i64 %190
  store i32 %188, i32* %191, align 4
  %192 = load i32, i32* %4, align 4
  %193 = sext i32 %192 to i64
  %194 = getelementptr inbounds [1000 x i32], [1000 x i32]* %11, i64 0, i64 %193
  %195 = load i32, i32* %194, align 4
  %196 = call i32 (i8*, ...) @printf(i8* getelementptr inbounds ([3 x i8], [3 x i8]* @.str.2, i64 0, i64 0), i32 %195)
  br label %204

197:                                              ; preds = %176
  %198 = load i32, i32* %4, align 4
  %199 = sext i32 %198 to i64
  %200 = getelementptr inbounds [1000 x i32], [1000 x i32]* %11, i64 0, i64 %199
  %201 = load i32, i32* %200, align 4
  %202 = add nsw i32 %201, 48
  %203 = call i32 (i8*, ...) @printf(i8* getelementptr inbounds ([3 x i8], [3 x i8]* @.str.2, i64 0, i64 0), i32 %202)
  br label %204

204:                                              ; preds = %197, %182
  br label %205

205:                                              ; preds = %204
  %206 = load i32, i32* %4, align 4
  %207 = add nsw i32 %206, -1
  store i32 %207, i32* %4, align 4
  br label %173

208:                                              ; preds = %173
  br label %209

209:                                              ; preds = %208, %20
  %210 = call i32 @getchar()
  %211 = call i32 @getchar()
  %212 = load i32, i32* %1, align 4
  ret i32 %212
}

declare dso_local i32 @__isoc99_scanf(i8*, ...) #1

declare dso_local i32 @printf(i8*, ...) #1

; Function Attrs: nounwind readonly
declare dso_local i64 @strlen(i8*) #2

declare dso_local i32 @getchar() #1


!llvm.module.flags = !{!0}
!llvm.ident = !{!1}

!0 = !{i32 1, !"wchar_size", i32 4}
!1 = !{!"clang version 10.0.0-4ubuntu1 "}
